target datalayout = "e-m:e-p270:32:32-p271:32:32-p272:64:64-i64:64-i128:128-f80:128-n8:16:32:64-S128"
target triple = "x86_64-pc-linux-gnu"

@.str.11 = private unnamed_addr constant [30 x i8] c"Assertion %s failed at %s:%d\0A\00", align 1
@.str.13 = private unnamed_addr constant [22 x i8] c"libavformat/apngenc.c\00", align 1
@.str.16 = private unnamed_addr constant [10 x i8] c"crc_table\00", align 1

; Function Attrs: alwaysinline nounwind willreturn memory(none) uwtable
define internal i32 @av_bswap32(i32 noundef %0) #5 {
  %2 = alloca i32, align 4
  store i32 %0, ptr %2, align 4, !tbaa !52
  %3 = load i32, ptr %2, align 4, !tbaa !52
  %4 = shl i32 %3, 8
  %5 = and i32 %4, 65280
  %6 = load i32, ptr %2, align 4, !tbaa !52
  %7 = lshr i32 %6, 8
  %8 = and i32 %7, 255
  %9 = or i32 %5, %8
  %10 = shl i32 %9, 16
  %11 = load i32, ptr %2, align 4, !tbaa !52
  %12 = lshr i32 %11, 16
  %13 = shl i32 %12, 8
  %14 = and i32 %13, 65280
  %15 = load i32, ptr %2, align 4, !tbaa !52
  %16 = lshr i32 %15, 16
  %17 = lshr i32 %16, 8
  %18 = and i32 %17, 255
  %19 = or i32 %14, %18
  %20 = or i32 %10, %19
  ret i32 %20
}

; Function Attrs: nounwind uwtable
define internal void @apng_write_chunk(ptr noundef %0, i32 noundef %1, ptr noundef %2, i64 noundef %3) #0 {
  %5 = alloca ptr, align 8
  %6 = alloca i32, align 4
  %7 = alloca ptr, align 8
  %8 = alloca i64, align 8
  %9 = alloca ptr, align 8
  %10 = alloca i32, align 4
  %11 = alloca [4 x i8], align 1
  store ptr %0, ptr %5, align 8, !tbaa !53
  store i32 %1, ptr %6, align 4, !tbaa !52
  store ptr %2, ptr %7, align 8, !tbaa !60
  store i64 %3, ptr %8, align 8, !tbaa !61
  call void @llvm.lifetime.start.p0(i64 8, ptr %9) #8
  %12 = call ptr @av_crc_get_table(i32 noundef 4)
  store ptr %12, ptr %9, align 8, !tbaa !73
  call void @llvm.lifetime.start.p0(i64 4, ptr %10) #8
  store i32 -1, ptr %10, align 4, !tbaa !52
  call void @llvm.lifetime.start.p0(i64 4, ptr %11) #8
  br label %13

13:                                               ; preds = %4
  %14 = load ptr, ptr %9, align 8, !tbaa !73
  %15 = icmp ne ptr %14, null
  br i1 %15, label %17, label %16

16:                                               ; preds = %13
  call void (ptr, i32, ptr, ...) @av_log(ptr noundef null, i32 noundef 0, ptr noundef @.str.11, ptr noundef @.str.16, ptr noundef @.str.13, i32 noundef 70)
  call void @abort() #10
  unreachable

17:                                               ; preds = %13
  br label %18

18:                                               ; preds = %17
  br label %19

19:                                               ; preds = %18
  %20 = load ptr, ptr %5, align 8, !tbaa !53
  %21 = load i64, ptr %8, align 8, !tbaa !61
  %22 = trunc i64 %21 to i32
  call void @avio_wb32(ptr noundef %20, i32 noundef %22)
  %23 = load i32, ptr %6, align 4, !tbaa !52
  %24 = call i32 @av_bswap32(i32 noundef %23) #9
  %25 = getelementptr inbounds [4 x i8], ptr %11, i64 0, i64 0
  store i32 %24, ptr %25, align 1, !tbaa !58
  %26 = load ptr, ptr %9, align 8, !tbaa !73
  %27 = load i32, ptr %10, align 4, !tbaa !52
  %28 = getelementptr inbounds [4 x i8], ptr %11, i64 0, i64 0
  %29 = call i32 @av_crc(ptr noundef %26, i32 noundef %27, ptr noundef %28, i64 noundef 4) #11
  store i32 %29, ptr %10, align 4, !tbaa !52
  %30 = load ptr, ptr %5, align 8, !tbaa !53
  %31 = load i32, ptr %6, align 4, !tbaa !52
  call void @avio_wb32(ptr noundef %30, i32 noundef %31)
  %32 = load i64, ptr %8, align 8, !tbaa !61
  %33 = icmp ugt i64 %32, 0
  br i1 %33, label %34, label %44

34:                                               ; preds = %19
  %35 = load ptr, ptr %9, align 8, !tbaa !73
  %36 = load i32, ptr %10, align 4, !tbaa !52
  %37 = load ptr, ptr %7, align 8, !tbaa !60
  %38 = load i64, ptr %8, align 8, !tbaa !61
  %39 = call i32 @av_crc(ptr noundef %35, i32 noundef %36, ptr noundef %37, i64 noundef %38) #11
  store i32 %39, ptr %10, align 4, !tbaa !52
  %40 = load ptr, ptr %5, align 8, !tbaa !53
  %41 = load ptr, ptr %7, align 8, !tbaa !60
  %42 = load i64, ptr %8, align 8, !tbaa !61
  %43 = trunc i64 %42 to i32
  call void @avio_write(ptr noundef %40, ptr noundef %41, i32 noundef %43)
  br label %44

44:                                               ; preds = %34, %19
  %45 = load ptr, ptr %5, align 8, !tbaa !53
  %46 = load i32, ptr %10, align 4, !tbaa !52
  %47 = xor i32 %46, -1
  call void @avio_wb32(ptr noundef %45, i32 noundef %47)
  call void @llvm.lifetime.end.p0(i64 4, ptr %11) #8
  call void @llvm.lifetime.end.p0(i64 4, ptr %10) #8
  call void @llvm.lifetime.end.p0(i64 8, ptr %9) #8
  ret void
}