; Function Attrs: nounwind uwtable
define internal fastcc void @apng_write_chunk(ptr noundef %0, i32 noundef range(i32 1229278788, 1717785677) %1, ptr noundef %2, i64 noundef range(i64 0, 27) %3) unnamed_addr #0 {
  %5 = alloca [4 x i8], align 4
  %6 = tail call ptr @av_crc_get_table(i32 noundef 4) #7
  call void @llvm.lifetime.start.p0(i64 4, ptr nonnull %5) #7
  %.not = icmp eq ptr %6, null
  br i1 %.not, label %7, label %8

7:                                                ; preds = %4
  tail call void (ptr, i32, ptr, ...) @av_log(ptr noundef null, i32 noundef 0, ptr noundef nonnull @.str.11, ptr noundef nonnull @.str.16, ptr noundef nonnull @.str.13, i32 noundef 70) #7
  tail call void @abort() #8
  unreachable

8:                                                ; preds = %4
  %9 = trunc nuw nsw i64 %3 to i32
  tail call void @avio_wb32(ptr noundef %0, i32 noundef %9) #7
  %10 = tail call i32 @llvm.bswap.i32(i32 %1)
  store i32 %10, ptr %5, align 4, !tbaa !50
  %11 = call i32 @av_crc(ptr noundef nonnull %6, i32 noundef -1, ptr noundef nonnull %5, i64 noundef 4) #9
  tail call void @avio_wb32(ptr noundef %0, i32 noundef %1) #7
  %.not19 = icmp eq i64 %3, 0
  br i1 %.not19, label %14, label %12

12:                                               ; preds = %8
  %13 = call i32 @av_crc(ptr noundef nonnull %6, i32 noundef %11, ptr noundef %2, i64 noundef %3) #9
  tail call void @avio_write(ptr noundef %0, ptr noundef %2, i32 noundef %9) #7
  br label %14

14:                                               ; preds = %12, %8
  %.0 = phi i32 [ %13, %12 ], [ %11, %8 ]
  %15 = xor i32 %.0, -1
  call void @avio_wb32(ptr noundef %0, i32 noundef %15) #7
  call void @llvm.lifetime.end.p0(i64 4, ptr nonnull %5) #7
  ret void
}